; Function Attrs: mustprogress uwtable
define internal noalias noundef ptr @_ZN3tbb6detail2d223for_each_iteration_taskIN32pxrInternal_v0_24__pxrReserved__22UsdPrimSubtreeIteratorEZZNS3_12_GLOBAL__N_137_TargetingPropertyDependencyCollector4_RunERKNS3_8TfRefPtrINS3_8UsdStageEEEENKUlvE_clEvEUlRKNS3_7UsdPrimEE_SD_E6cancelERNS0_2d114execution_dataE(ptr noundef nonnull readonly align 64 captures(none) dereferenceable(128) %0, ptr nonnull readnone align 8 captures(none) %1) unnamed_addr #0 align 2 {
  %3 = getelementptr inbounds nuw i8, ptr %0, i64 120
  %.val = load ptr, ptr %3, align 8
  %4 = getelementptr inbounds nuw i8, ptr %.val, i64 8
  %5 = atomicrmw add ptr %4, i64 -1 seq_cst, align 8
  %.not.i.i.i = icmp eq i64 %5, 1
  br i1 %.not.i.i.i, label %6, label %_ZN3tbb6detail2d223for_each_iteration_taskIN32pxrInternal_v0_24__pxrReserved__22UsdPrimSubtreeIteratorEZZNS3_12_GLOBAL__N_137_TargetingPropertyDependencyCollector4_RunERKNS3_8TfRefPtrINS3_8UsdStageEEEENKUlvE_clEvEUlRKNS3_7UsdPrimEE_SD_E8finalizeEv.exit

6:                                                ; preds = %2
  %7 = ptrtoint ptr %.val to i64
  tail call void @_ZN3tbb6detail2r114notify_waitersEm(i64 noundef %7)
  br label %_ZN3tbb6detail2d223for_each_iteration_taskIN32pxrInternal_v0_24__pxrReserved__22UsdPrimSubtreeIteratorEZZNS3_12_GLOBAL__N_137_TargetingPropertyDependencyCollector4_RunERKNS3_8TfRefPtrINS3_8UsdStageEEEENKUlvE_clEvEUlRKNS3_7UsdPrimEE_SD_E8finalizeEv.exit

_ZN3tbb6detail2d223for_each_iteration_taskIN32pxrInternal_v0_24__pxrReserved__22UsdPrimSubtreeIteratorEZZNS3_12_GLOBAL__N_137_TargetingPropertyDependencyCollector4_RunERKNS3_8TfRefPtrINS3_8UsdStageEEEENKUlvE_clEvEUlRKNS3_7UsdPrimEE_SD_E8finalizeEv.exit: ; preds = %2, %6
  ret ptr null
}